; ModuleID = '21/1690.c'
source_filename = "21/1690.c"
target datalayout = "e-m:e-p270:32:32-p271:32:32-p272:64:64-i64:64-f80:128-n8:16:32:64-S128"
target triple = "x86_64-pc-linux-gnu"

@.str = private unnamed_addr constant [5 x i8] c" %d \00", align 1
@.str.1 = private unnamed_addr constant [3 x i8] c"%d\00", align 1
@.str.2 = private unnamed_addr constant [4 x i8] c",%d\00", align 1

; Function Attrs: noinline nounwind uwtable
define dso_local i32 @main(i32 %0, i8** %1) #0 {
  %3 = alloca i32, align 4
  %4 = alloca i32, align 4
  %5 = alloca i8**, align 8
  %6 = alloca i32, align 4
  %7 = alloca i32, align 4
  %8 = alloca i32*, align 8
  %9 = alloca i32, align 4
  %10 = alloca i32, align 4
  %11 = alloca double, align 8
  %12 = alloca double, align 8
  %13 = alloca double, align 8
  %14 = alloca i32*, align 8
  store i32 0, i32* %3, align 4
  store i32 %0, i32* %4, align 4
  store i8** %1, i8*** %5, align 8
  store i32 0, i32* %7, align 4
  store i32 0, i32* %10, align 4
  store double 0.000000e+00, double* %13, align 8
  %15 = call i32 (i8*, ...) @__isoc99_scanf(i8* getelementptr inbounds ([5 x i8], [5 x i8]* @.str, i64 0, i64 0), i32* %6)
  %16 = load i32, i32* %6, align 4
  %17 = sext i32 %16 to i64
  %18 = mul i64 %17, 4
  %19 = call noalias i8* @malloc(i64 %18) #4
  %20 = bitcast i8* %19 to i32*
  store i32* %20, i32** %8, align 8
  %21 = load i32, i32* %6, align 4
  %22 = sext i32 %21 to i64
  %23 = mul i64 %22, 4
  %24 = call noalias i8* @malloc(i64 %23) #4
  %25 = bitcast i8* %24 to i32*
  store i32* %25, i32** %14, align 8
  store i32 0, i32* %9, align 4
  br label %26

26:                                               ; preds = %43, %2
  %27 = load i32, i32* %9, align 4
  %28 = load i32, i32* %6, align 4
  %29 = icmp slt i32 %27, %28
  br i1 %29, label %30, label %46

30:                                               ; preds = %26
  %31 = load i32*, i32** %8, align 8
  %32 = load i32, i32* %9, align 4
  %33 = sext i32 %32 to i64
  %34 = getelementptr inbounds i32, i32* %31, i64 %33
  %35 = call i32 (i8*, ...) @__isoc99_scanf(i8* getelementptr inbounds ([3 x i8], [3 x i8]* @.str.1, i64 0, i64 0), i32* %34)
  %36 = load i32*, i32** %8, align 8
  %37 = load i32, i32* %9, align 4
  %38 = sext i32 %37 to i64
  %39 = getelementptr inbounds i32, i32* %36, i64 %38
  %40 = load i32, i32* %39, align 4
  %41 = load i32, i32* %10, align 4
  %42 = add nsw i32 %41, %40
  store i32 %42, i32* %10, align 4
  br label %43

43:                                               ; preds = %30
  %44 = load i32, i32* %9, align 4
  %45 = add nsw i32 %44, 1
  store i32 %45, i32* %9, align 4
  br label %26

46:                                               ; preds = %26
  %47 = load i32, i32* %10, align 4
  %48 = sitofp i32 %47 to double
  %49 = fmul double 1.000000e+00, %48
  %50 = load i32, i32* %6, align 4
  %51 = sitofp i32 %50 to double
  %52 = fdiv double %49, %51
  store double %52, double* %11, align 8
  store i32 0, i32* %9, align 4
  br label %53

53:                                               ; preds = %98, %46
  %54 = load i32, i32* %9, align 4
  %55 = load i32, i32* %6, align 4
  %56 = icmp slt i32 %54, %55
  br i1 %56, label %57, label %101

57:                                               ; preds = %53
  %58 = load i32*, i32** %8, align 8
  %59 = load i32, i32* %9, align 4
  %60 = sext i32 %59 to i64
  %61 = getelementptr inbounds i32, i32* %58, i64 %60
  %62 = load i32, i32* %61, align 4
  %63 = sitofp i32 %62 to double
  %64 = fmul double 1.000000e+00, %63
  %65 = load double, double* %11, align 8
  %66 = fsub double %64, %65
  %67 = call double @llvm.fabs.f64(double %66)
  store double %67, double* %12, align 8
  %68 = load double, double* %12, align 8
  %69 = load double, double* %13, align 8
  %70 = fcmp ogt double %68, %69
  br i1 %70, label %71, label %80

71:                                               ; preds = %57
  %72 = load double, double* %12, align 8
  store double %72, double* %13, align 8
  %73 = load i32*, i32** %8, align 8
  %74 = load i32, i32* %9, align 4
  %75 = sext i32 %74 to i64
  %76 = getelementptr inbounds i32, i32* %73, i64 %75
  %77 = load i32, i32* %76, align 4
  %78 = load i32*, i32** %14, align 8
  %79 = getelementptr inbounds i32, i32* %78, i64 0
  store i32 %77, i32* %79, align 4
  store i32 0, i32* %7, align 4
  br label %97

80:                                               ; preds = %57
  %81 = load double, double* %12, align 8
  %82 = load double, double* %13, align 8
  %83 = fcmp oeq double %81, %82
  br i1 %83, label %84, label %96

84:                                               ; preds = %80
  %85 = load i32, i32* %7, align 4
  %86 = add nsw i32 %85, 1
  store i32 %86, i32* %7, align 4
  %87 = load i32*, i32** %8, align 8
  %88 = load i32, i32* %9, align 4
  %89 = sext i32 %88 to i64
  %90 = getelementptr inbounds i32, i32* %87, i64 %89
  %91 = load i32, i32* %90, align 4
  %92 = load i32*, i32** %14, align 8
  %93 = load i32, i32* %7, align 4
  %94 = sext i32 %93 to i64
  %95 = getelementptr inbounds i32, i32* %92, i64 %94
  store i32 %91, i32* %95, align 4
  br label %96

96:                                               ; preds = %84, %80
  br label %97

97:                                               ; preds = %96, %71
  br label %98

98:                                               ; preds = %97
  %99 = load i32, i32* %9, align 4
  %100 = add nsw i32 %99, 1
  store i32 %100, i32* %9, align 4
  br label %53

101:                                              ; preds = %53
  %102 = load i32*, i32** %14, align 8
  %103 = getelementptr inbounds i32, i32* %102, i64 0
  %104 = load i32, i32* %103, align 4
  %105 = call i32 (i8*, ...) @printf(i8* getelementptr inbounds ([3 x i8], [3 x i8]* @.str.1, i64 0, i64 0), i32 %104)
  store i32 1, i32* %9, align 4
  br label %106

106:                                              ; preds = %117, %101
  %107 = load i32, i32* %9, align 4
  %108 = load i32, i32* %7, align 4
  %109 = icmp sle i32 %107, %108
  br i1 %109, label %110, label %120

110:                                              ; preds = %106
  %111 = load i32*, i32** %14, align 8
  %112 = load i32, i32* %9, align 4
  %113 = sext i32 %112 to i64
  %114 = getelementptr inbounds i32, i32* %111, i64 %113
  %115 = load i32, i32* %114, align 4
  %116 = call i32 (i8*, ...) @printf(i8* getelementptr inbounds ([4 x i8], [4 x i8]* @.str.2, i64 0, i64 0), i32 %115)
  br label %117

117:                                              ; preds = %110
  %118 = load i32, i32* %9, align 4
  %119 = add nsw i32 %118, 1
  store i32 %119, i32* %9, align 4
  br label %106

120:                                              ; preds = %106
  ret i32 0
}

declare dso_local i32 @__isoc99_scanf(i8*, ...) #1

; Function Attrs: nounwind
declare dso_local noalias i8* @malloc(i64) #2

; Function Attrs: nounwind readnone speculatable willreturn
declare double @llvm.fabs.f64(double) #3

declare dso_local i32 @printf(i8*, ...) #1


!llvm.module.flags = !{!0}
!llvm.ident = !{!1}

!0 = !{i32 1, !"wchar_size", i32 4}
!1 = !{!"clang version 10.0.0-4ubuntu1 "}
