; ModuleID = 'source-C-CXX/20/1690.c'
source_filename = "source-C-CXX/20/1690.c"
target datalayout = "e-m:e-p270:32:32-p271:32:32-p272:64:64-i64:64-f80:128-n8:16:32:64-S128"
target triple = "x86_64-pc-linux-gnu"

@.str = private unnamed_addr constant [5 x i8] c" %d \00", align 1
@.str.1 = private unnamed_addr constant [3 x i8] c"%d\00", align 1
@.str.2 = private unnamed_addr constant [4 x i8] c",%d\00", align 1

; Function Attrs: nofree nounwind sspstrong uwtable
define dso_local i32 @main(i32 %0, i8** nocapture readnone %1) local_unnamed_addr #0 {
  %3 = alloca i32, align 4
  %4 = bitcast i32* %3 to i8*
  call void @llvm.lifetime.start.p0i8(i64 4, i8* nonnull %4) #5
  %5 = call i32 (i8*, ...) @__isoc99_scanf(i8* getelementptr inbounds ([5 x i8], [5 x i8]* @.str, i64 0, i64 0), i32* nonnull %3)
  %6 = load i32, i32* %3, align 4, !tbaa !5
  %7 = sext i32 %6 to i64
  %8 = shl nsw i64 %7, 2
  %9 = call noalias align 16 i8* @malloc(i64 %8) #5
  %10 = bitcast i8* %9 to i32*
  %11 = call noalias align 16 i8* @malloc(i64 %8) #5
  %12 = bitcast i8* %11 to i32*
  %13 = icmp sgt i32 %6, 0
  br i1 %13, label %14, label %54

14:                                               ; preds = %2, %14
  %15 = phi i64 [ %21, %14 ], [ 0, %2 ]
  %16 = phi i32 [ %20, %14 ], [ 0, %2 ]
  %17 = getelementptr inbounds i32, i32* %10, i64 %15
  %18 = call i32 (i8*, ...) @__isoc99_scanf(i8* getelementptr inbounds ([3 x i8], [3 x i8]* @.str.1, i64 0, i64 0), i32* %17)
  %19 = load i32, i32* %17, align 4, !tbaa !5
  %20 = add nsw i32 %19, %16
  %21 = add nuw nsw i64 %15, 1
  %22 = load i32, i32* %3, align 4, !tbaa !5
  %23 = sext i32 %22 to i64
  %24 = icmp slt i64 %21, %23
  br i1 %24, label %14, label %25, !llvm.loop !9

25:                                               ; preds = %14
  %26 = sitofp i32 %20 to double
  %27 = sitofp i32 %22 to double
  %28 = fdiv double %26, %27
  %29 = icmp sgt i32 %22, 0
  br i1 %29, label %30, label %54

30:                                               ; preds = %25
  %31 = zext i32 %22 to i64
  br label %32

32:                                               ; preds = %30, %49
  %33 = phi i64 [ 0, %30 ], [ %52, %49 ]
  %34 = phi i32 [ 0, %30 ], [ %51, %49 ]
  %35 = phi double [ 0.000000e+00, %30 ], [ %50, %49 ]
  %36 = getelementptr inbounds i32, i32* %10, i64 %33
  %37 = load i32, i32* %36, align 4, !tbaa !5
  %38 = sitofp i32 %37 to double
  %39 = fsub double %38, %28
  %40 = call double @llvm.fabs.f64(double %39)
  %41 = fcmp ogt double %40, %35
  br i1 %41, label %42, label %43

42:                                               ; preds = %32
  store i32 %37, i32* %12, align 16, !tbaa !5
  br label %49

43:                                               ; preds = %32
  %44 = fcmp oeq double %40, %35
  br i1 %44, label %45, label %49

45:                                               ; preds = %43
  %46 = add nsw i32 %34, 1
  %47 = sext i32 %46 to i64
  %48 = getelementptr inbounds i32, i32* %12, i64 %47
  store i32 %37, i32* %48, align 4, !tbaa !5
  br label %49

49:                                               ; preds = %42, %45, %43
  %50 = phi double [ %40, %42 ], [ %35, %45 ], [ %35, %43 ]
  %51 = phi i32 [ 0, %42 ], [ %46, %45 ], [ %34, %43 ]
  %52 = add nuw nsw i64 %33, 1
  %53 = icmp eq i64 %52, %31
  br i1 %53, label %56, label %32, !llvm.loop !11

54:                                               ; preds = %25, %2
  %55 = call i32 (i8*, ...) @printf(i8* nonnull dereferenceable(1) getelementptr inbounds ([3 x i8], [3 x i8]* @.str.1, i64 0, i64 0), i32 undef)
  br label %70

56:                                               ; preds = %49
  %57 = load i32, i32* %12, align 16, !tbaa !5
  %58 = call i32 (i8*, ...) @printf(i8* nonnull dereferenceable(1) getelementptr inbounds ([3 x i8], [3 x i8]* @.str.1, i64 0, i64 0), i32 %57)
  %59 = icmp slt i32 %51, 1
  br i1 %59, label %70, label %60

60:                                               ; preds = %56
  %61 = add nuw i32 %51, 1
  %62 = zext i32 %61 to i64
  br label %63

63:                                               ; preds = %60, %63
  %64 = phi i64 [ 1, %60 ], [ %68, %63 ]
  %65 = getelementptr inbounds i32, i32* %12, i64 %64
  %66 = load i32, i32* %65, align 4, !tbaa !5
  %67 = call i32 (i8*, ...) @printf(i8* nonnull dereferenceable(1) getelementptr inbounds ([4 x i8], [4 x i8]* @.str.2, i64 0, i64 0), i32 %66)
  %68 = add nuw nsw i64 %64, 1
  %69 = icmp eq i64 %68, %62
  br i1 %69, label %70, label %63, !llvm.loop !12

70:                                               ; preds = %63, %54, %56
  call void @llvm.lifetime.end.p0i8(i64 4, i8* nonnull %4) #5
  ret i32 0
}

; Function Attrs: argmemonly mustprogress nofree nosync nounwind willreturn
declare void @llvm.lifetime.start.p0i8(i64 immarg, i8* nocapture) #1

; Function Attrs: nofree nounwind
declare noundef i32 @__isoc99_scanf(i8* nocapture noundef readonly, ...) local_unnamed_addr #2

; Function Attrs: inaccessiblememonly mustprogress nofree nounwind willreturn
declare noalias noundef align 16 i8* @malloc(i64 noundef) local_unnamed_addr #3

; Function Attrs: mustprogress nofree nosync nounwind readnone speculatable willreturn
declare double @llvm.fabs.f64(double) #4

; Function Attrs: nofree nounwind
declare noundef i32 @printf(i8* nocapture noundef readonly, ...) local_unnamed_addr #2

; Function Attrs: argmemonly mustprogress nofree nosync nounwind willreturn
declare void @llvm.lifetime.end.p0i8(i64 immarg, i8* nocapture) #1


!llvm.module.flags = !{!0, !1, !2, !3}
!llvm.ident = !{!4}

!0 = !{i32 1, !"wchar_size", i32 4}
!1 = !{i32 7, !"PIC Level", i32 2}
!2 = !{i32 7, !"PIE Level", i32 2}
!3 = !{i32 7, !"uwtable", i32 1}
!4 = !{!"clang version 13.0.0"}
!5 = !{!6, !6, i64 0}
!6 = !{!"int", !7, i64 0}
!7 = !{!"omnipotent char", !8, i64 0}
!8 = !{!"Simple C/C++ TBAA"}
!9 = distinct !{!9, !10}
!10 = !{!"llvm.loop.mustprogress"}
!11 = distinct !{!11, !10}
!12 = distinct !{!12, !10}
